(dp0
S'2200'
p1
(lp2
F0.05316953774131914
aF0.024450467084066424
asS'2600'
p3
(lp4
F0.015725147874715812
aF0.005734852224728619
asS'1800'
p5
(lp6
F0.20397683373274333
aF0.113623173673735
asS'1600'
p7
(lp8
F0.43478527555219243
aF0.2514147547783747
asS'1200'
p9
(lp10
F2.3013856962565367
aF1.5866144411114016
asS'2000'
p11
(lp12
F0.10015952573957726
aF0.0540604756296898
asS'3000'
p13
(lp14
F0.005129437236282685
aF0.0013385629290246159
asS'2400'
p15
(lp16
F0.02846387541863702
aF0.011836125372049441
asS'2800'
p17
(lp18
F0.008877294740428948
aF0.002780705694842983
asS'1400'
p19
(lp20
F0.9557449728453955
aF0.6138550815594815
as.