(dp0
S'2200'
p1
(lp2
F0.10605660674934579
aF0.048843402650983095
asS'2600'
p3
(lp4
F0.031041677438710672
aF0.01177832667623859
asS'1800'
p5
(lp6
F0.4064530139063755
aF0.2277470588628852
asS'1600'
p7
(lp8
F0.8493627600652944
aF0.5200370668691644
asS'1200'
p9
(lp10
F4.56835767825436
aF3.1916400295582523
asS'2000'
p11
(lp12
F0.19933633690978853
aF0.10838367384579169
asS'3000'
p13
(lp14
F0.0099747167272003
aF0.0029412837933238136
asS'2400'
p15
(lp16
F0.05606498946659985
aF0.02439501720386261
asS'2800'
p17
(lp18
F0.017445748977344532
aF0.005840252912204357
asS'1400'
p19
(lp20
F1.8904238224561447
aF1.2423750725670388
as.