(dp0
S'2200'
p1
(lp2
F0.05359465587483471
aF0.02402534756412534
asS'2600'
p3
(lp4
F0.015723058705921267
aF0.005736944550989168
asS'1800'
p5
(lp6
F0.2040603840523187
aF0.11353964372234952
asS'1600'
p7
(lp8
F0.42654156191823206
aF0.2596583805872958
asS'1200'
p9
(lp10
F2.27868661727464
aF1.60931342358701
asS'2000'
p11
(lp12
F0.09964439681097723
aF0.054575610402766594
asS'3000'
p13
(lp14
F0.004989448517768269
aF0.0014785517902268321
asS'2400'
p15
(lp16
F0.027648334163609522
aF0.012651670702933855
asS'2800'
p17
(lp18
F0.008681044379659936
aF0.0029769566216286962
asS'1400'
p19
(lp20
F0.9495863304476967
aF0.6200132562365361
as.