(dp0
S'2200'
p1
(lp2
F0.05250139102280407
aF0.024778617989147423
asS'2600'
p3
(lp4
F0.015331348491454885
aF0.00602865277487435
asS'1800'
p5
(lp6
F0.20231800969240207
aF0.11428203154637488
asS'1600'
p7
(lp8
F0.4228571145543455
aF0.26034276480110413
asS'1200'
p9
(lp10
F2.287440122267565
aF1.5845578654834485
asS'2000'
p11
(lp12
F0.09970883023835066
aF0.0537911754843576
asS'3000'
p13
(lp14
F0.004984745801194658
aF0.0014632544832337891
asS'2400'
p15
(lp16
F0.02836006974217435
aF0.011799933108316979
asS'2800'
p17
(lp18
F0.008763797834052232
aF0.002864203004849979
asS'1400'
p19
(lp20
F0.9409999893034978
aF0.6221993239819942
as.